target datalayout = "e-m:e-p270:32:32-p271:32:32-p272:64:64-i64:64-i128:128-f80:128-n8:16:32:64-S128"
target triple = "x86_64-pc-linux-gnu"

%struct.ItemPointerData = type { %struct.BlockIdData, i16 }
%struct.BlockIdData = type { i16, i16 }
%struct.HeapTupleData = type { i32, %struct.ItemPointerData, i32, ptr }

@.str.1 = private unnamed_addr constant [7 x i8] c"heap.c\00", align 1
@.str.46 = private unnamed_addr constant [53 x i8] c"cache lookup failed for partition key of relation %u\00", align 1
@__func__.RemovePartitionKeyByRelId = private unnamed_addr constant [26 x i8] c"RemovePartitionKeyByRelId\00", align 1

; Function Attrs: inlinehint nounwind uwtable
define internal i64 @ObjectIdGetDatum(i32 noundef %0) #5 {
  %2 = alloca i32, align 4
  store i32 %0, ptr %2, align 4
  %3 = load i32, ptr %2, align 4
  %4 = zext i32 %3 to i64
  ret i64 %4
}

; Function Attrs: nounwind uwtable
define dso_local void @RemovePartitionKeyByRelId(i32 noundef %0) #0 {
  %2 = alloca i32, align 4
  %3 = alloca ptr, align 8
  %4 = alloca ptr, align 8
  store i32 %0, ptr %2, align 4
  call void @llvm.lifetime.start.p0(i64 8, ptr %3) #10
  call void @llvm.lifetime.start.p0(i64 8, ptr %4) #10
  %5 = call ptr @table_open(i32 noundef 3350, i32 noundef 3)
  store ptr %5, ptr %3, align 8
  %6 = load i32, ptr %2, align 4
  %7 = call i64 @ObjectIdGetDatum(i32 noundef %6)
  %8 = call ptr @SearchSysCache1(i32 noundef 45, i64 noundef %7)
  store ptr %8, ptr %4, align 8
  %9 = load ptr, ptr %4, align 8
  %10 = icmp ne ptr %9, null
  br i1 %10, label %23, label %11

11:                                               ; preds = %1
  br label %12

12:                                               ; preds = %11
  br i1 true, label %13, label %15

13:                                               ; preds = %12
  %14 = call zeroext i1 @errstart_cold(i32 noundef 21, ptr noundef null) #9
  br i1 %14, label %17, label %20

15:                                               ; preds = %12
  %16 = call zeroext i1 @errstart(i32 noundef 21, ptr noundef null)
  br i1 %16, label %17, label %20

17:                                               ; preds = %15, %13
  %18 = load i32, ptr %2, align 4
  %19 = call i32 (ptr, ...) @errmsg_internal(ptr noundef @.str.46, i32 noundef %18)
  call void @errfinish(ptr noundef @.str.1, i32 noundef 3889, ptr noundef @__func__.RemovePartitionKeyByRelId)
  br label %20

20:                                               ; preds = %17, %15, %13
  unreachable

21:                                               ; No predecessors!
  br label %22

22:                                               ; preds = %21
  br label %23

23:                                               ; preds = %22, %1
  %24 = load ptr, ptr %3, align 8
  %25 = load ptr, ptr %4, align 8
  %26 = getelementptr inbounds nuw %struct.HeapTupleData, ptr %25, i32 0, i32 1
  call void @CatalogTupleDelete(ptr noundef %24, ptr noundef %26)
  %27 = load ptr, ptr %4, align 8
  call void @ReleaseSysCache(ptr noundef %27)
  %28 = load ptr, ptr %3, align 8
  call void @table_close(ptr noundef %28, i32 noundef 3)
  call void @llvm.lifetime.end.p0(i64 8, ptr %4) #10
  call void @llvm.lifetime.end.p0(i64 8, ptr %3) #10
  ret void
}